target datalayout = "e-m:e-p270:32:32-p271:32:32-p272:64:64-i64:64-i128:128-f80:128-n8:16:32:64-S128"
target triple = "x86_64-pc-linux-gnu"

; Function Attrs: nounwind uwtable
define hidden i32 @lj_ir_numcmp(double noundef %0, double noundef %1, i32 noundef %2) #3 {
  %4 = alloca i32, align 4
  %5 = alloca double, align 8
  %6 = alloca double, align 8
  %7 = alloca i32, align 4
  store double %0, ptr %5, align 8, !tbaa !52
  store double %1, ptr %6, align 8, !tbaa !52
  store i32 %2, ptr %7, align 4, !tbaa !32
  %8 = load i32, ptr %7, align 4, !tbaa !32
  switch i32 %8, label %63 [
    i32 8, label %9
    i32 9, label %14
    i32 0, label %19
    i32 1, label %24
    i32 2, label %29
    i32 3, label %34
    i32 4, label %39
    i32 5, label %45
    i32 6, label %51
    i32 7, label %57
  ]

9:                                                ; preds = %3
  %10 = load double, ptr %5, align 8, !tbaa !52
  %11 = load double, ptr %6, align 8, !tbaa !52
  %12 = fcmp oeq double %10, %11
  %13 = zext i1 %12 to i32
  store i32 %13, ptr %4, align 4
  br label %64

14:                                               ; preds = %3
  %15 = load double, ptr %5, align 8, !tbaa !52
  %16 = load double, ptr %6, align 8, !tbaa !52
  %17 = fcmp une double %15, %16
  %18 = zext i1 %17 to i32
  store i32 %18, ptr %4, align 4
  br label %64

19:                                               ; preds = %3
  %20 = load double, ptr %5, align 8, !tbaa !52
  %21 = load double, ptr %6, align 8, !tbaa !52
  %22 = fcmp olt double %20, %21
  %23 = zext i1 %22 to i32
  store i32 %23, ptr %4, align 4
  br label %64

24:                                               ; preds = %3
  %25 = load double, ptr %5, align 8, !tbaa !52
  %26 = load double, ptr %6, align 8, !tbaa !52
  %27 = fcmp oge double %25, %26
  %28 = zext i1 %27 to i32
  store i32 %28, ptr %4, align 4
  br label %64

29:                                               ; preds = %3
  %30 = load double, ptr %5, align 8, !tbaa !52
  %31 = load double, ptr %6, align 8, !tbaa !52
  %32 = fcmp ole double %30, %31
  %33 = zext i1 %32 to i32
  store i32 %33, ptr %4, align 4
  br label %64

34:                                               ; preds = %3
  %35 = load double, ptr %5, align 8, !tbaa !52
  %36 = load double, ptr %6, align 8, !tbaa !52
  %37 = fcmp ogt double %35, %36
  %38 = zext i1 %37 to i32
  store i32 %38, ptr %4, align 4
  br label %64

39:                                               ; preds = %3
  %40 = load double, ptr %5, align 8, !tbaa !52
  %41 = load double, ptr %6, align 8, !tbaa !52
  %42 = fcmp oge double %40, %41
  %43 = xor i1 %42, true
  %44 = zext i1 %43 to i32
  store i32 %44, ptr %4, align 4
  br label %64

45:                                               ; preds = %3
  %46 = load double, ptr %5, align 8, !tbaa !52
  %47 = load double, ptr %6, align 8, !tbaa !52
  %48 = fcmp olt double %46, %47
  %49 = xor i1 %48, true
  %50 = zext i1 %49 to i32
  store i32 %50, ptr %4, align 4
  br label %64

51:                                               ; preds = %3
  %52 = load double, ptr %5, align 8, !tbaa !52
  %53 = load double, ptr %6, align 8, !tbaa !52
  %54 = fcmp ogt double %52, %53
  %55 = xor i1 %54, true
  %56 = zext i1 %55 to i32
  store i32 %56, ptr %4, align 4
  br label %64

57:                                               ; preds = %3
  %58 = load double, ptr %5, align 8, !tbaa !52
  %59 = load double, ptr %6, align 8, !tbaa !52
  %60 = fcmp ole double %58, %59
  %61 = xor i1 %60, true
  %62 = zext i1 %61 to i32
  store i32 %62, ptr %4, align 4
  br label %64

63:                                               ; preds = %3
  store i32 0, ptr %4, align 4
  br label %64

64:                                               ; preds = %63, %57, %51, %45, %39, %34, %29, %24, %19, %14, %9
  %65 = load i32, ptr %4, align 4
  ret i32 %65
}