; Function Attrs: mustprogress nofree norecurse nosync nounwind willreturn memory(none) uwtable
define hidden range(i32 0, 2) i32 @lj_ir_numcmp(double noundef %0, double noundef %1, i32 noundef %2) local_unnamed_addr #11 {
  switch i32 %2, label %24 [
    i32 8, label %4
    i32 9, label %6
    i32 0, label %8
    i32 1, label %10
    i32 2, label %12
    i32 3, label %14
    i32 4, label %16
    i32 5, label %18
    i32 6, label %20
    i32 7, label %22
  ]

4:                                                ; preds = %3
  %5 = fcmp oeq double %0, %1
  br label %24

6:                                                ; preds = %3
  %7 = fcmp une double %0, %1
  br label %24

8:                                                ; preds = %3
  %9 = fcmp olt double %0, %1
  br label %24

10:                                               ; preds = %3
  %11 = fcmp oge double %0, %1
  br label %24

12:                                               ; preds = %3
  %13 = fcmp ole double %0, %1
  br label %24

14:                                               ; preds = %3
  %15 = fcmp ogt double %0, %1
  br label %24

16:                                               ; preds = %3
  %17 = fcmp ult double %0, %1
  br label %24

18:                                               ; preds = %3
  %19 = fcmp uge double %0, %1
  br label %24

20:                                               ; preds = %3
  %21 = fcmp ule double %0, %1
  br label %24

22:                                               ; preds = %3
  %23 = fcmp ugt double %0, %1
  br label %24

24:                                               ; preds = %3, %22, %20, %18, %16, %14, %12, %10, %8, %6, %4
  %.0.shrunk = phi i1 [ %23, %22 ], [ %21, %20 ], [ %19, %18 ], [ %17, %16 ], [ %15, %14 ], [ %13, %12 ], [ %11, %10 ], [ %9, %8 ], [ %7, %6 ], [ %5, %4 ], [ false, %3 ]
  %.0 = zext i1 %.0.shrunk to i32
  ret i32 %.0
}